; Function Attrs: mustprogress null_pointer_is_valid sspstrong uwtable
define internal void @"_ZN9QtPrivate18QFunctorSlotObjectIZN19WiresharkMainWindow22connectViewMenuActionsEvE3$_7Li0ENS_4ListIJEEEvE4implEiPNS_15QSlotObjectBaseEP7QObjectPPvPb"(i32 noundef %0, ptr noundef %1, ptr readnone captures(none) %2, ptr readnone captures(none) %3, ptr readnone captures(none) %4) #0 align 2 {
  switch i32 %0, label %13 [
    i32 0, label %6
    i32 1, label %9
  ]

6:                                                ; preds = %5
  %7 = icmp eq ptr %1, null
  br i1 %7, label %13, label %8

8:                                                ; preds = %6
  tail call void @_ZdlPvm(ptr noundef nonnull %1, i64 noundef 24) #26
  br label %13

9:                                                ; preds = %5
  %10 = load i32, ptr getelementptr inbounds nuw (i8, ptr @recent, i64 24), align 8
  %11 = add i32 %10, -1
  store i32 %11, ptr getelementptr inbounds nuw (i8, ptr @recent, i64 24), align 8
  %12 = load ptr, ptr @mainApp, align 8
  tail call void @_ZN15MainApplication12zoomTextFontEi(ptr noundef align 8 dereferenceable_or_null(216) %12, i32 noundef %11)
  br label %13

13:                                               ; preds = %6, %8, %9, %5
  ret void
}